target datalayout = "e-m:e-p270:32:32-p271:32:32-p272:64:64-i64:64-i128:128-f80:128-n8:16:32:64-S128"
target triple = "x86_64-pc-linux-gnu"

%struct.MoveOutDetector = type { i8 }
%struct.OptionalHolder.1415 = type { %class.ReferenceSensitiveOptional.1416 }
%class.ReferenceSensitiveOptional.1416 = type { %"class.std::vector.1417" }
%"class.std::vector.1417" = type { %"struct.std::_Vector_base.1418" }
%"struct.std::_Vector_base.1418" = type { %"struct.std::_Vector_base<MoveOutDetector, std::allocator<MoveOutDetector>>::_Vector_impl" }
%"struct.std::_Vector_base<MoveOutDetector, std::allocator<MoveOutDetector>>::_Vector_impl" = type { %"struct.std::_Vector_base<MoveOutDetector, std::allocator<MoveOutDetector>>::_Vector_impl_data" }
%"struct.std::_Vector_base<MoveOutDetector, std::allocator<MoveOutDetector>>::_Vector_impl_data" = type { ptr, ptr, ptr }
%"class.__gnu_cxx::__normal_iterator.1439" = type { ptr }

; Function Attrs: mustprogress nounwind uwtable
define internal noundef nonnull align 8 dereferenceable(8) ptr @_ZNK9__gnu_cxx17__normal_iteratorIPKZ18test_submodule_stlRN8pybind117module_EE15MoveOutDetectorSt6vectorIS4_SaIS4_EEE4baseEv(ptr noundef nonnull align 8 dereferenceable(8) %0) #0 align 2 {
  %2 = alloca ptr, align 8
  store ptr %0, ptr %2, align 8
  %3 = load ptr, ptr %2, align 8
  %4 = getelementptr inbounds %"class.__gnu_cxx::__normal_iterator.1439", ptr %3, i32 0, i32 0
  ret ptr %4
}

; Function Attrs: mustprogress nounwind uwtable
define internal void @_ZN9__gnu_cxx17__normal_iteratorIPKZ18test_submodule_stlRN8pybind117module_EE15MoveOutDetectorSt6vectorIS4_SaIS4_EEEC2ERKS6_(ptr noundef nonnull align 8 dereferenceable(8) %0, ptr noundef nonnull align 8 dereferenceable(8) %1) unnamed_addr #0 align 2 {
  %3 = alloca ptr, align 8
  %4 = alloca ptr, align 8
  store ptr %0, ptr %3, align 8
  store ptr %1, ptr %4, align 8
  %5 = load ptr, ptr %3, align 8
  %6 = getelementptr inbounds %"class.__gnu_cxx::__normal_iterator.1439", ptr %5, i32 0, i32 0
  %7 = load ptr, ptr %4, align 8
  %8 = load ptr, ptr %7, align 8
  store ptr %8, ptr %6, align 8
  ret void
}

; Function Attrs: mustprogress nounwind uwtable
define internal noundef nonnull align 1 dereferenceable(1) ptr @_ZNKSt6vectorIZ18test_submodule_stlRN8pybind117module_EE15MoveOutDetectorSaIS3_EEixEm(ptr noundef nonnull align 8 dereferenceable(24) %0, i64 noundef %1) #0 align 2 {
  %3 = alloca ptr, align 8
  %4 = alloca i64, align 8
  store ptr %0, ptr %3, align 8
  store i64 %1, ptr %4, align 8
  %5 = load ptr, ptr %3, align 8
  %6 = getelementptr inbounds %"struct.std::_Vector_base.1418", ptr %5, i32 0, i32 0
  %7 = getelementptr inbounds %"struct.std::_Vector_base<MoveOutDetector, std::allocator<MoveOutDetector>>::_Vector_impl_data", ptr %6, i32 0, i32 0
  %8 = load ptr, ptr %7, align 8
  %9 = load i64, ptr %4, align 8
  %10 = getelementptr inbounds %struct.MoveOutDetector, ptr %8, i64 %9
  ret ptr %10
}

; Function Attrs: mustprogress nounwind uwtable
define internal noundef zeroext i1 @_ZN9__gnu_cxxeqIPKZ18test_submodule_stlRN8pybind117module_EE15MoveOutDetectorSt6vectorIS4_SaIS4_EEEEbRKNS_17__normal_iteratorIT_T0_EESF_(ptr noundef nonnull align 8 dereferenceable(8) %0, ptr noundef nonnull align 8 dereferenceable(8) %1) #0 {
  %3 = alloca ptr, align 8
  %4 = alloca ptr, align 8
  store ptr %0, ptr %3, align 8
  store ptr %1, ptr %4, align 8
  %5 = load ptr, ptr %3, align 8
  %6 = call noundef nonnull align 8 dereferenceable(8) ptr @_ZNK9__gnu_cxx17__normal_iteratorIPKZ18test_submodule_stlRN8pybind117module_EE15MoveOutDetectorSt6vectorIS4_SaIS4_EEE4baseEv(ptr noundef nonnull align 8 dereferenceable(8) %5) #6
  %7 = load ptr, ptr %6, align 8
  %8 = load ptr, ptr %4, align 8
  %9 = call noundef nonnull align 8 dereferenceable(8) ptr @_ZNK9__gnu_cxx17__normal_iteratorIPKZ18test_submodule_stlRN8pybind117module_EE15MoveOutDetectorSt6vectorIS4_SaIS4_EEE4baseEv(ptr noundef nonnull align 8 dereferenceable(8) %8) #6
  %10 = load ptr, ptr %9, align 8
  %11 = icmp eq ptr %7, %10
  ret i1 %11
}

; Function Attrs: mustprogress nounwind uwtable
define internal ptr @_ZNKSt6vectorIZ18test_submodule_stlRN8pybind117module_EE15MoveOutDetectorSaIS3_EE3endEv(ptr noundef nonnull align 8 dereferenceable(24) %0) #0 align 2 {
  %2 = alloca %"class.__gnu_cxx::__normal_iterator.1439", align 8
  %3 = alloca ptr, align 8
  store ptr %0, ptr %3, align 8
  %4 = load ptr, ptr %3, align 8
  %5 = getelementptr inbounds %"struct.std::_Vector_base.1418", ptr %4, i32 0, i32 0
  %6 = getelementptr inbounds %"struct.std::_Vector_base<MoveOutDetector, std::allocator<MoveOutDetector>>::_Vector_impl_data", ptr %5, i32 0, i32 1
  call void @_ZN9__gnu_cxx17__normal_iteratorIPKZ18test_submodule_stlRN8pybind117module_EE15MoveOutDetectorSt6vectorIS4_SaIS4_EEEC2ERKS6_(ptr noundef nonnull align 8 dereferenceable(8) %2, ptr noundef nonnull align 8 dereferenceable(8) %6) #6
  %7 = getelementptr inbounds %"class.__gnu_cxx::__normal_iterator.1439", ptr %2, i32 0, i32 0
  %8 = load ptr, ptr %7, align 8
  ret ptr %8
}

; Function Attrs: mustprogress nounwind uwtable
define internal ptr @_ZNKSt6vectorIZ18test_submodule_stlRN8pybind117module_EE15MoveOutDetectorSaIS3_EE5beginEv(ptr noundef nonnull align 8 dereferenceable(24) %0) #0 align 2 {
  %2 = alloca %"class.__gnu_cxx::__normal_iterator.1439", align 8
  %3 = alloca ptr, align 8
  store ptr %0, ptr %3, align 8
  %4 = load ptr, ptr %3, align 8
  %5 = getelementptr inbounds %"struct.std::_Vector_base.1418", ptr %4, i32 0, i32 0
  %6 = getelementptr inbounds %"struct.std::_Vector_base<MoveOutDetector, std::allocator<MoveOutDetector>>::_Vector_impl_data", ptr %5, i32 0, i32 0
  call void @_ZN9__gnu_cxx17__normal_iteratorIPKZ18test_submodule_stlRN8pybind117module_EE15MoveOutDetectorSt6vectorIS4_SaIS4_EEEC2ERKS6_(ptr noundef nonnull align 8 dereferenceable(8) %2, ptr noundef nonnull align 8 dereferenceable(8) %6) #6
  %7 = getelementptr inbounds %"class.__gnu_cxx::__normal_iterator.1439", ptr %2, i32 0, i32 0
  %8 = load ptr, ptr %7, align 8
  ret ptr %8
}

; Function Attrs: mustprogress nounwind uwtable
define internal noundef nonnull align 1 dereferenceable(1) ptr @_ZNK26ReferenceSensitiveOptionalIZ18test_submodule_stlRN8pybind117module_EE15MoveOutDetectorE5valueEv(ptr noundef nonnull align 8 dereferenceable(24) %0) #0 align 2 {
  %2 = alloca ptr, align 8
  store ptr %0, ptr %2, align 8
  %3 = load ptr, ptr %2, align 8
  %4 = getelementptr inbounds %class.ReferenceSensitiveOptional.1416, ptr %3, i32 0, i32 0
  %5 = call noundef nonnull align 1 dereferenceable(1) ptr @_ZNKSt6vectorIZ18test_submodule_stlRN8pybind117module_EE15MoveOutDetectorSaIS3_EEixEm(ptr noundef nonnull align 8 dereferenceable(24) %4, i64 noundef 0) #6
  ret ptr %5
}

; Function Attrs: mustprogress nounwind uwtable
define internal noundef zeroext i1 @_ZNKSt6vectorIZ18test_submodule_stlRN8pybind117module_EE15MoveOutDetectorSaIS3_EE5emptyEv(ptr noundef nonnull align 8 dereferenceable(24) %0) #0 align 2 {
  %2 = alloca ptr, align 8
  %3 = alloca %"class.__gnu_cxx::__normal_iterator.1439", align 8
  %4 = alloca %"class.__gnu_cxx::__normal_iterator.1439", align 8
  store ptr %0, ptr %2, align 8
  %5 = load ptr, ptr %2, align 8
  %6 = call ptr @_ZNKSt6vectorIZ18test_submodule_stlRN8pybind117module_EE15MoveOutDetectorSaIS3_EE5beginEv(ptr noundef nonnull align 8 dereferenceable(24) %5) #6
  %7 = getelementptr inbounds %"class.__gnu_cxx::__normal_iterator.1439", ptr %3, i32 0, i32 0
  store ptr %6, ptr %7, align 8
  %8 = call ptr @_ZNKSt6vectorIZ18test_submodule_stlRN8pybind117module_EE15MoveOutDetectorSaIS3_EE3endEv(ptr noundef nonnull align 8 dereferenceable(24) %5) #6
  %9 = getelementptr inbounds %"class.__gnu_cxx::__normal_iterator.1439", ptr %4, i32 0, i32 0
  store ptr %8, ptr %9, align 8
  %10 = call noundef zeroext i1 @_ZN9__gnu_cxxeqIPKZ18test_submodule_stlRN8pybind117module_EE15MoveOutDetectorSt6vectorIS4_SaIS4_EEEEbRKNS_17__normal_iteratorIT_T0_EESF_(ptr noundef nonnull align 8 dereferenceable(8) %3, ptr noundef nonnull align 8 dereferenceable(8) %4) #6
  ret i1 %10
}

; Function Attrs: mustprogress nounwind uwtable
define internal noundef ptr @_ZNK26ReferenceSensitiveOptionalIZ18test_submodule_stlRN8pybind117module_EE15MoveOutDetectorEptEv(ptr noundef nonnull align 8 dereferenceable(24) %0) #0 align 2 {
  %2 = alloca ptr, align 8
  store ptr %0, ptr %2, align 8
  %3 = load ptr, ptr %2, align 8
  %4 = call noundef nonnull align 1 dereferenceable(1) ptr @_ZNK26ReferenceSensitiveOptionalIZ18test_submodule_stlRN8pybind117module_EE15MoveOutDetectorE5valueEv(ptr noundef nonnull align 8 dereferenceable(24) %3) #6
  ret ptr %4
}

; Function Attrs: mustprogress nounwind uwtable
define internal noundef zeroext i1 @_ZNK26ReferenceSensitiveOptionalIZ18test_submodule_stlRN8pybind117module_EE15MoveOutDetectorEcvbEv(ptr noundef nonnull align 8 dereferenceable(24) %0) #0 align 2 {
  %2 = alloca ptr, align 8
  store ptr %0, ptr %2, align 8
  %3 = load ptr, ptr %2, align 8
  %4 = getelementptr inbounds %class.ReferenceSensitiveOptional.1416, ptr %3, i32 0, i32 0
  %5 = call noundef zeroext i1 @_ZNKSt6vectorIZ18test_submodule_stlRN8pybind117module_EE15MoveOutDetectorSaIS3_EE5emptyEv(ptr noundef nonnull align 8 dereferenceable(24) %4) #6
  %6 = xor i1 %5, true
  ret i1 %6
}

; Function Attrs: mustprogress nounwind uwtable
define internal noundef zeroext i1 @_ZNK14OptionalHolderI26ReferenceSensitiveOptionalZ18test_submodule_stlRN8pybind117module_EE15MoveOutDetectorE18member_initializedEv(ptr noundef nonnull align 8 dereferenceable(24) %0) #0 align 2 {
  %2 = alloca ptr, align 8
  store ptr %0, ptr %2, align 8
  %3 = load ptr, ptr %2, align 8
  %4 = getelementptr inbounds %struct.OptionalHolder.1415, ptr %3, i32 0, i32 0
  %5 = call noundef zeroext i1 @_ZNK26ReferenceSensitiveOptionalIZ18test_submodule_stlRN8pybind117module_EE15MoveOutDetectorEcvbEv(ptr noundef nonnull align 8 dereferenceable(24) %4) #6
  br i1 %5, label %6, label %12

6:                                                ; preds = %1
  %7 = getelementptr inbounds %struct.OptionalHolder.1415, ptr %3, i32 0, i32 0
  %8 = call noundef ptr @_ZNK26ReferenceSensitiveOptionalIZ18test_submodule_stlRN8pybind117module_EE15MoveOutDetectorEptEv(ptr noundef nonnull align 8 dereferenceable(24) %7) #6
  %9 = getelementptr inbounds %struct.MoveOutDetector, ptr %8, i32 0, i32 0
  %10 = load i8, ptr %9, align 1
  %11 = trunc i8 %10 to i1
  br label %12

12:                                               ; preds = %6, %1
  %13 = phi i1 [ false, %1 ], [ %11, %6 ]
  ret i1 %13
}