; Function Attrs: mustprogress nofree norecurse nosync nounwind willreturn memory(read, inaccessiblemem: none) uwtable
define internal noundef zeroext i1 @_ZNK14OptionalHolderI26ReferenceSensitiveOptionalZ18test_submodule_stlRN8pybind117module_EE15MoveOutDetectorE18member_initializedEv(ptr nocapture noundef nonnull readonly align 8 dereferenceable(24) %0) #9 align 2 {
  %.val = load ptr, ptr %0, align 8
  %2 = getelementptr inbounds i8, ptr %0, i64 8
  %.val1 = load ptr, ptr %2, align 8
  %.not = icmp eq ptr %.val, %.val1
  br i1 %.not, label %7, label %3

3:                                                ; preds = %1
  %4 = load i8, ptr %.val, align 1
  %5 = and i8 %4, 1
  %6 = icmp ne i8 %5, 0
  br label %7

7:                                                ; preds = %3, %1
  %8 = phi i1 [ false, %1 ], [ %6, %3 ]
  ret i1 %8
}